target datalayout = "e-m:e-p270:32:32-p271:32:32-p272:64:64-i64:64-i128:128-f80:128-n8:16:32:64-S128"
target triple = "x86_64-pc-linux-gnu"

%struct.lua_TValue = type { %union.Value, i32 }
%union.Value = type { ptr }
%union.TString = type { %struct.anon }
%struct.anon = type { ptr, i8, i8, i8, i32, i64 }

; Function Attrs: nounwind uwtable
define hidden ptr @luaV_tonumber(ptr noundef %0, ptr noundef %1) #0 {
  %3 = alloca ptr, align 8
  %4 = alloca ptr, align 8
  %5 = alloca ptr, align 8
  %6 = alloca double, align 8
  %7 = alloca i32, align 4
  %8 = alloca ptr, align 8
  store ptr %0, ptr %4, align 8, !tbaa !4
  store ptr %1, ptr %5, align 8, !tbaa !4
  call void @llvm.lifetime.start.p0(i64 8, ptr %6) #7
  %9 = load ptr, ptr %4, align 8, !tbaa !4
  %10 = getelementptr inbounds nuw %struct.lua_TValue, ptr %9, i32 0, i32 1
  %11 = load i32, ptr %10, align 8, !tbaa !9
  %12 = icmp eq i32 %11, 3
  br i1 %12, label %13, label %15

13:                                               ; preds = %2
  %14 = load ptr, ptr %4, align 8, !tbaa !4
  store ptr %14, ptr %3, align 8
  store i32 1, ptr %7, align 4
  br label %36

15:                                               ; preds = %2
  %16 = load ptr, ptr %4, align 8, !tbaa !4
  %17 = getelementptr inbounds nuw %struct.lua_TValue, ptr %16, i32 0, i32 1
  %18 = load i32, ptr %17, align 8, !tbaa !9
  %19 = icmp eq i32 %18, 4
  br i1 %19, label %20, label %35

20:                                               ; preds = %15
  %21 = load ptr, ptr %4, align 8, !tbaa !4
  %22 = getelementptr inbounds nuw %struct.lua_TValue, ptr %21, i32 0, i32 0
  %23 = load ptr, ptr %22, align 8, !tbaa !12
  %24 = getelementptr inbounds %union.TString, ptr %23, i64 1
  %25 = call i32 @luaO_str2d(ptr noundef %24, ptr noundef %6)
  %26 = icmp ne i32 %25, 0
  br i1 %26, label %27, label %35

27:                                               ; preds = %20
  call void @llvm.lifetime.start.p0(i64 8, ptr %8) #7
  %28 = load ptr, ptr %5, align 8, !tbaa !4
  store ptr %28, ptr %8, align 8, !tbaa !4
  %29 = load double, ptr %6, align 8, !tbaa !13
  %30 = load ptr, ptr %8, align 8, !tbaa !4
  %31 = getelementptr inbounds nuw %struct.lua_TValue, ptr %30, i32 0, i32 0
  store double %29, ptr %31, align 8, !tbaa !12
  %32 = load ptr, ptr %8, align 8, !tbaa !4
  %33 = getelementptr inbounds nuw %struct.lua_TValue, ptr %32, i32 0, i32 1
  store i32 3, ptr %33, align 8, !tbaa !9
  call void @llvm.lifetime.end.p0(i64 8, ptr %8) #7
  %34 = load ptr, ptr %5, align 8, !tbaa !4
  store ptr %34, ptr %3, align 8
  store i32 1, ptr %7, align 4
  br label %36

35:                                               ; preds = %20, %15
  store ptr null, ptr %3, align 8
  store i32 1, ptr %7, align 4
  br label %36

36:                                               ; preds = %35, %27, %13
  call void @llvm.lifetime.end.p0(i64 8, ptr %6) #7
  %37 = load ptr, ptr %3, align 8
  ret ptr %37
}

; Function Attrs: nounwind uwtable
define internal void @Arith(ptr noundef %0, ptr noundef %1, ptr noundef %2, ptr noundef %3, i32 noundef %4) #0 {
  %6 = alloca ptr, align 8
  %7 = alloca ptr, align 8
  %8 = alloca ptr, align 8
  %9 = alloca ptr, align 8
  %10 = alloca i32, align 4
  %11 = alloca %struct.lua_TValue, align 8
  %12 = alloca %struct.lua_TValue, align 8
  %13 = alloca ptr, align 8
  %14 = alloca ptr, align 8
  %15 = alloca double, align 8
  %16 = alloca double, align 8
  %17 = alloca ptr, align 8
  %18 = alloca ptr, align 8
  %19 = alloca ptr, align 8
  %20 = alloca ptr, align 8
  %21 = alloca ptr, align 8
  %22 = alloca ptr, align 8
  %23 = alloca ptr, align 8
  store ptr %0, ptr %6, align 8, !tbaa !15
  store ptr %1, ptr %7, align 8, !tbaa !4
  store ptr %2, ptr %8, align 8, !tbaa !4
  store ptr %3, ptr %9, align 8, !tbaa !4
  store i32 %4, ptr %10, align 4, !tbaa !17
  call void @llvm.lifetime.start.p0(i64 16, ptr %11) #7
  call void @llvm.lifetime.start.p0(i64 16, ptr %12) #7
  call void @llvm.lifetime.start.p0(i64 8, ptr %13) #7
  call void @llvm.lifetime.start.p0(i64 8, ptr %14) #7
  %24 = load ptr, ptr %8, align 8, !tbaa !4
  %25 = call ptr @luaV_tonumber(ptr noundef %24, ptr noundef %11)
  store ptr %25, ptr %13, align 8, !tbaa !4
  %26 = icmp ne ptr %25, null
  br i1 %26, label %27, label %108

27:                                               ; preds = %5
  %28 = load ptr, ptr %9, align 8, !tbaa !4
  %29 = call ptr @luaV_tonumber(ptr noundef %28, ptr noundef %12)
  store ptr %29, ptr %14, align 8, !tbaa !4
  %30 = icmp ne ptr %29, null
  br i1 %30, label %31, label %108

31:                                               ; preds = %27
  call void @llvm.lifetime.start.p0(i64 8, ptr %15) #7
  %32 = load ptr, ptr %13, align 8, !tbaa !4
  %33 = getelementptr inbounds nuw %struct.lua_TValue, ptr %32, i32 0, i32 0
  %34 = load double, ptr %33, align 8, !tbaa !12
  store double %34, ptr %15, align 8, !tbaa !13
  call void @llvm.lifetime.start.p0(i64 8, ptr %16) #7
  %35 = load ptr, ptr %14, align 8, !tbaa !4
  %36 = getelementptr inbounds nuw %struct.lua_TValue, ptr %35, i32 0, i32 0
  %37 = load double, ptr %36, align 8, !tbaa !12
  store double %37, ptr %16, align 8, !tbaa !13
  %38 = load i32, ptr %10, align 4, !tbaa !17
  switch i32 %38, label %106 [
    i32 5, label %39
    i32 6, label %48
    i32 7, label %57
    i32 8, label %66
    i32 9, label %75
    i32 10, label %89
    i32 11, label %98
  ]

39:                                               ; preds = %31
  call void @llvm.lifetime.start.p0(i64 8, ptr %17) #7
  %40 = load ptr, ptr %7, align 8, !tbaa !4
  store ptr %40, ptr %17, align 8, !tbaa !4
  %41 = load double, ptr %15, align 8, !tbaa !13
  %42 = load double, ptr %16, align 8, !tbaa !13
  %43 = fadd double %41, %42
  %44 = load ptr, ptr %17, align 8, !tbaa !4
  %45 = getelementptr inbounds nuw %struct.lua_TValue, ptr %44, i32 0, i32 0
  store double %43, ptr %45, align 8, !tbaa !12
  %46 = load ptr, ptr %17, align 8, !tbaa !4
  %47 = getelementptr inbounds nuw %struct.lua_TValue, ptr %46, i32 0, i32 1
  store i32 3, ptr %47, align 8, !tbaa !9
  call void @llvm.lifetime.end.p0(i64 8, ptr %17) #7
  br label %107

48:                                               ; preds = %31
  call void @llvm.lifetime.start.p0(i64 8, ptr %18) #7
  %49 = load ptr, ptr %7, align 8, !tbaa !4
  store ptr %49, ptr %18, align 8, !tbaa !4
  %50 = load double, ptr %15, align 8, !tbaa !13
  %51 = load double, ptr %16, align 8, !tbaa !13
  %52 = fsub double %50, %51
  %53 = load ptr, ptr %18, align 8, !tbaa !4
  %54 = getelementptr inbounds nuw %struct.lua_TValue, ptr %53, i32 0, i32 0
  store double %52, ptr %54, align 8, !tbaa !12
  %55 = load ptr, ptr %18, align 8, !tbaa !4
  %56 = getelementptr inbounds nuw %struct.lua_TValue, ptr %55, i32 0, i32 1
  store i32 3, ptr %56, align 8, !tbaa !9
  call void @llvm.lifetime.end.p0(i64 8, ptr %18) #7
  br label %107

57:                                               ; preds = %31
  call void @llvm.lifetime.start.p0(i64 8, ptr %19) #7
  %58 = load ptr, ptr %7, align 8, !tbaa !4
  store ptr %58, ptr %19, align 8, !tbaa !4
  %59 = load double, ptr %15, align 8, !tbaa !13
  %60 = load double, ptr %16, align 8, !tbaa !13
  %61 = fmul double %59, %60
  %62 = load ptr, ptr %19, align 8, !tbaa !4
  %63 = getelementptr inbounds nuw %struct.lua_TValue, ptr %62, i32 0, i32 0
  store double %61, ptr %63, align 8, !tbaa !12
  %64 = load ptr, ptr %19, align 8, !tbaa !4
  %65 = getelementptr inbounds nuw %struct.lua_TValue, ptr %64, i32 0, i32 1
  store i32 3, ptr %65, align 8, !tbaa !9
  call void @llvm.lifetime.end.p0(i64 8, ptr %19) #7
  br label %107

66:                                               ; preds = %31
  call void @llvm.lifetime.start.p0(i64 8, ptr %20) #7
  %67 = load ptr, ptr %7, align 8, !tbaa !4
  store ptr %67, ptr %20, align 8, !tbaa !4
  %68 = load double, ptr %15, align 8, !tbaa !13
  %69 = load double, ptr %16, align 8, !tbaa !13
  %70 = fdiv double %68, %69
  %71 = load ptr, ptr %20, align 8, !tbaa !4
  %72 = getelementptr inbounds nuw %struct.lua_TValue, ptr %71, i32 0, i32 0
  store double %70, ptr %72, align 8, !tbaa !12
  %73 = load ptr, ptr %20, align 8, !tbaa !4
  %74 = getelementptr inbounds nuw %struct.lua_TValue, ptr %73, i32 0, i32 1
  store i32 3, ptr %74, align 8, !tbaa !9
  call void @llvm.lifetime.end.p0(i64 8, ptr %20) #7
  br label %107

75:                                               ; preds = %31
  call void @llvm.lifetime.start.p0(i64 8, ptr %21) #7
  %76 = load ptr, ptr %7, align 8, !tbaa !4
  store ptr %76, ptr %21, align 8, !tbaa !4
  %77 = load double, ptr %15, align 8, !tbaa !13
  %78 = load double, ptr %15, align 8, !tbaa !13
  %79 = load double, ptr %16, align 8, !tbaa !13
  %80 = fdiv double %78, %79
  %81 = call double @llvm.floor.f64(double %80)
  %82 = load double, ptr %16, align 8, !tbaa !13
  %83 = fneg double %81
  %84 = call double @llvm.fmuladd.f64(double %83, double %82, double %77)
  %85 = load ptr, ptr %21, align 8, !tbaa !4
  %86 = getelementptr inbounds nuw %struct.lua_TValue, ptr %85, i32 0, i32 0
  store double %84, ptr %86, align 8, !tbaa !12
  %87 = load ptr, ptr %21, align 8, !tbaa !4
  %88 = getelementptr inbounds nuw %struct.lua_TValue, ptr %87, i32 0, i32 1
  store i32 3, ptr %88, align 8, !tbaa !9
  call void @llvm.lifetime.end.p0(i64 8, ptr %21) #7
  br label %107

89:                                               ; preds = %31
  call void @llvm.lifetime.start.p0(i64 8, ptr %22) #7
  %90 = load ptr, ptr %7, align 8, !tbaa !4
  store ptr %90, ptr %22, align 8, !tbaa !4
  %91 = load double, ptr %15, align 8, !tbaa !13
  %92 = load double, ptr %16, align 8, !tbaa !13
  %93 = call double @pow(double noundef %91, double noundef %92) #7, !tbaa !17
  %94 = load ptr, ptr %22, align 8, !tbaa !4
  %95 = getelementptr inbounds nuw %struct.lua_TValue, ptr %94, i32 0, i32 0
  store double %93, ptr %95, align 8, !tbaa !12
  %96 = load ptr, ptr %22, align 8, !tbaa !4
  %97 = getelementptr inbounds nuw %struct.lua_TValue, ptr %96, i32 0, i32 1
  store i32 3, ptr %97, align 8, !tbaa !9
  call void @llvm.lifetime.end.p0(i64 8, ptr %22) #7
  br label %107

98:                                               ; preds = %31
  call void @llvm.lifetime.start.p0(i64 8, ptr %23) #7
  %99 = load ptr, ptr %7, align 8, !tbaa !4
  store ptr %99, ptr %23, align 8, !tbaa !4
  %100 = load double, ptr %15, align 8, !tbaa !13
  %101 = fneg double %100
  %102 = load ptr, ptr %23, align 8, !tbaa !4
  %103 = getelementptr inbounds nuw %struct.lua_TValue, ptr %102, i32 0, i32 0
  store double %101, ptr %103, align 8, !tbaa !12
  %104 = load ptr, ptr %23, align 8, !tbaa !4
  %105 = getelementptr inbounds nuw %struct.lua_TValue, ptr %104, i32 0, i32 1
  store i32 3, ptr %105, align 8, !tbaa !9
  call void @llvm.lifetime.end.p0(i64 8, ptr %23) #7
  br label %107

106:                                              ; preds = %31
  br label %107

107:                                              ; preds = %106, %98, %89, %75, %66, %57, %48, %39
  call void @llvm.lifetime.end.p0(i64 8, ptr %16) #7
  call void @llvm.lifetime.end.p0(i64 8, ptr %15) #7
  br label %121

108:                                              ; preds = %27, %5
  %109 = load ptr, ptr %6, align 8, !tbaa !15
  %110 = load ptr, ptr %8, align 8, !tbaa !4
  %111 = load ptr, ptr %9, align 8, !tbaa !4
  %112 = load ptr, ptr %7, align 8, !tbaa !4
  %113 = load i32, ptr %10, align 4, !tbaa !17
  %114 = call i32 @call_binTM(ptr noundef %109, ptr noundef %110, ptr noundef %111, ptr noundef %112, i32 noundef %113)
  %115 = icmp ne i32 %114, 0
  br i1 %115, label %120, label %116

116:                                              ; preds = %108
  %117 = load ptr, ptr %6, align 8, !tbaa !15
  %118 = load ptr, ptr %8, align 8, !tbaa !4
  %119 = load ptr, ptr %9, align 8, !tbaa !4
  call void @luaG_aritherror(ptr noundef %117, ptr noundef %118, ptr noundef %119)
  br label %120

120:                                              ; preds = %116, %108
  br label %121

121:                                              ; preds = %120, %107
  call void @llvm.lifetime.end.p0(i64 8, ptr %14) #7
  call void @llvm.lifetime.end.p0(i64 8, ptr %13) #7
  call void @llvm.lifetime.end.p0(i64 16, ptr %12) #7
  call void @llvm.lifetime.end.p0(i64 16, ptr %11) #7
  ret void
}