; Function Attrs: nounwind uwtable
define internal fastcc void @Arith(ptr noundef %0, ptr noundef %1, ptr noundef %2, ptr noundef %3, i32 noundef range(i32 5, 12) %4) unnamed_addr #0 {
  %6 = alloca double, align 8
  %7 = alloca double, align 8
  %.sroa.060 = alloca ptr, align 8
  call void @llvm.lifetime.start.p0(i64 8, ptr nonnull %.sroa.060)
  call void @llvm.lifetime.start.p0(i64 8, ptr nonnull %7) #9
  %8 = getelementptr inbounds nuw i8, ptr %2, i64 8
  %9 = load i32, ptr %8, align 8, !tbaa !4
  switch i32 %9, label %luaV_tonumber.exit [
    i32 3, label %16
    i32 4, label %10
  ]

10:                                               ; preds = %5
  %11 = load ptr, ptr %2, align 8, !tbaa !9
  %12 = getelementptr inbounds nuw i8, ptr %11, i64 24
  %13 = call i32 @luaO_str2d(ptr noundef nonnull %12, ptr noundef nonnull %7) #9
  %.not.i = icmp eq i32 %13, 0
  br i1 %.not.i, label %luaV_tonumber.exit, label %14

14:                                               ; preds = %10
  %15 = load double, ptr %7, align 8, !tbaa !10
  store double %15, ptr %.sroa.060, align 8, !tbaa !9
  br label %16

luaV_tonumber.exit:                               ; preds = %5, %10
  call void @llvm.lifetime.end.p0(i64 8, ptr nonnull %7) #9
  br label %49

16:                                               ; preds = %14, %5
  %.0.i.ph = phi ptr [ %2, %5 ], [ %.sroa.060, %14 ]
  call void @llvm.lifetime.end.p0(i64 8, ptr nonnull %7) #9
  call void @llvm.lifetime.start.p0(i64 8, ptr nonnull %6) #9
  %17 = getelementptr inbounds nuw i8, ptr %3, i64 8
  %18 = load i32, ptr %17, align 8, !tbaa !4
  switch i32 %18, label %luaV_tonumber.exit53 [
    i32 3, label %._crit_edge
    i32 4, label %19
  ]

19:                                               ; preds = %16
  %20 = load ptr, ptr %3, align 8, !tbaa !9
  %21 = getelementptr inbounds nuw i8, ptr %20, i64 24
  %22 = call i32 @luaO_str2d(ptr noundef nonnull %21, ptr noundef nonnull %6) #9
  %.not.i51 = icmp eq i32 %22, 0
  br i1 %.not.i51, label %luaV_tonumber.exit53, label %._crit_edge

luaV_tonumber.exit53:                             ; preds = %16, %19
  call void @llvm.lifetime.end.p0(i64 8, ptr nonnull %6) #9
  br label %49

._crit_edge:                                      ; preds = %19, %16
  %.in = phi ptr [ %3, %16 ], [ %6, %19 ]
  %23 = load double, ptr %.in, align 8, !tbaa !9
  call void @llvm.lifetime.end.p0(i64 8, ptr nonnull %6) #9
  %24 = load double, ptr %.0.i.ph, align 8, !tbaa !9
  switch i32 %4, label %default.unreachable63 [
    i32 5, label %25
    i32 6, label %28
    i32 7, label %31
    i32 8, label %34
    i32 9, label %37
    i32 10, label %43
    i32 11, label %46
  ]

25:                                               ; preds = %._crit_edge
  %26 = fadd double %24, %23
  store double %26, ptr %1, align 8, !tbaa !9
  %27 = getelementptr inbounds nuw i8, ptr %1, i64 8
  store i32 3, ptr %27, align 8, !tbaa !4
  br label %52

28:                                               ; preds = %._crit_edge
  %29 = fsub double %24, %23
  store double %29, ptr %1, align 8, !tbaa !9
  %30 = getelementptr inbounds nuw i8, ptr %1, i64 8
  store i32 3, ptr %30, align 8, !tbaa !4
  br label %52

31:                                               ; preds = %._crit_edge
  %32 = fmul double %24, %23
  store double %32, ptr %1, align 8, !tbaa !9
  %33 = getelementptr inbounds nuw i8, ptr %1, i64 8
  store i32 3, ptr %33, align 8, !tbaa !4
  br label %52

34:                                               ; preds = %._crit_edge
  %35 = fdiv double %24, %23
  store double %35, ptr %1, align 8, !tbaa !9
  %36 = getelementptr inbounds nuw i8, ptr %1, i64 8
  store i32 3, ptr %36, align 8, !tbaa !4
  br label %52

37:                                               ; preds = %._crit_edge
  %38 = fdiv double %24, %23
  %39 = call double @llvm.floor.f64(double %38)
  %40 = fneg double %39
  %41 = call double @llvm.fmuladd.f64(double %40, double %23, double %24)
  store double %41, ptr %1, align 8, !tbaa !9
  %42 = getelementptr inbounds nuw i8, ptr %1, i64 8
  store i32 3, ptr %42, align 8, !tbaa !4
  br label %52

43:                                               ; preds = %._crit_edge
  %44 = call double @pow(double noundef %24, double noundef %23) #9, !tbaa !53
  store double %44, ptr %1, align 8, !tbaa !9
  %45 = getelementptr inbounds nuw i8, ptr %1, i64 8
  store i32 3, ptr %45, align 8, !tbaa !4
  br label %52

46:                                               ; preds = %._crit_edge
  %47 = fneg double %24
  store double %47, ptr %1, align 8, !tbaa !9
  %48 = getelementptr inbounds nuw i8, ptr %1, i64 8
  store i32 3, ptr %48, align 8, !tbaa !4
  br label %52

default.unreachable63:                            ; preds = %._crit_edge
  unreachable

49:                                               ; preds = %luaV_tonumber.exit53, %luaV_tonumber.exit
  %50 = call fastcc i32 @call_binTM(ptr noundef %0, ptr noundef nonnull %2, ptr noundef %3, ptr noundef %1, i32 noundef %4)
  %.not50 = icmp eq i32 %50, 0
  br i1 %.not50, label %51, label %52

51:                                               ; preds = %49
  call void @luaG_aritherror(ptr noundef %0, ptr noundef nonnull %2, ptr noundef %3) #9
  br label %52

52:                                               ; preds = %25, %28, %31, %34, %37, %43, %46, %49, %51
  call void @llvm.lifetime.end.p0(i64 8, ptr nonnull %.sroa.060)
  ret void
}